target datalayout = "e-m:e-p270:32:32-p271:32:32-p272:64:64-i64:64-i128:128-f80:128-n8:16:32:64-S128"
target triple = "x86_64-pc-linux-gnu"

%struct.ccm128_context = type { %union.anon, %union.anon, i64, ptr, ptr }
%union.anon = type { [2 x i64] }
%union.anon.2 = type { [2 x i64] }

; Function Attrs: nounwind uwtable
define internal void @ctr64_add(ptr noundef %0, i64 noundef %1) #0 {
  %3 = alloca ptr, align 8
  %4 = alloca i64, align 8
  %5 = alloca i64, align 8
  %6 = alloca i64, align 8
  store ptr %0, ptr %3, align 8, !tbaa !17
  store i64 %1, ptr %4, align 8, !tbaa !19
  call void @llvm.lifetime.start.p0(i64 8, ptr %5) #4
  store i64 8, ptr %5, align 8, !tbaa !19
  call void @llvm.lifetime.start.p0(i64 8, ptr %6) #4
  store i64 0, ptr %6, align 8, !tbaa !19
  %7 = load ptr, ptr %3, align 8, !tbaa !17
  %8 = getelementptr inbounds i8, ptr %7, i64 8
  store ptr %8, ptr %3, align 8, !tbaa !17
  br label %9

9:                                                ; preds = %42, %2
  %10 = load i64, ptr %5, align 8, !tbaa !19
  %11 = add i64 %10, -1
  store i64 %11, ptr %5, align 8, !tbaa !19
  %12 = load ptr, ptr %3, align 8, !tbaa !17
  %13 = load i64, ptr %5, align 8, !tbaa !19
  %14 = getelementptr inbounds nuw i8, ptr %12, i64 %13
  %15 = load i8, ptr %14, align 1, !tbaa !11
  %16 = zext i8 %15 to i64
  %17 = load i64, ptr %4, align 8, !tbaa !19
  %18 = and i64 %17, 255
  %19 = add i64 %16, %18
  %20 = load i64, ptr %6, align 8, !tbaa !19
  %21 = add i64 %20, %19
  store i64 %21, ptr %6, align 8, !tbaa !19
  %22 = load i64, ptr %6, align 8, !tbaa !19
  %23 = trunc i64 %22 to i8
  %24 = load ptr, ptr %3, align 8, !tbaa !17
  %25 = load i64, ptr %5, align 8, !tbaa !19
  %26 = getelementptr inbounds nuw i8, ptr %24, i64 %25
  store i8 %23, ptr %26, align 1, !tbaa !11
  %27 = load i64, ptr %6, align 8, !tbaa !19
  %28 = lshr i64 %27, 8
  store i64 %28, ptr %6, align 8, !tbaa !19
  %29 = load i64, ptr %4, align 8, !tbaa !19
  %30 = lshr i64 %29, 8
  store i64 %30, ptr %4, align 8, !tbaa !19
  br label %31

31:                                               ; preds = %9
  %32 = load i64, ptr %5, align 8, !tbaa !19
  %33 = icmp ne i64 %32, 0
  br i1 %33, label %34, label %42

34:                                               ; preds = %31
  %35 = load i64, ptr %4, align 8, !tbaa !19
  %36 = icmp ne i64 %35, 0
  br i1 %36, label %40, label %37

37:                                               ; preds = %34
  %38 = load i64, ptr %6, align 8, !tbaa !19
  %39 = icmp ne i64 %38, 0
  br label %40

40:                                               ; preds = %37, %34
  %41 = phi i1 [ true, %34 ], [ %39, %37 ]
  br label %42

42:                                               ; preds = %40, %31
  %43 = phi i1 [ false, %31 ], [ %41, %40 ]
  br i1 %43, label %9, label %44, !llvm.loop !39

44:                                               ; preds = %42
  call void @llvm.lifetime.end.p0(i64 8, ptr %6) #4
  call void @llvm.lifetime.end.p0(i64 8, ptr %5) #4
  ret void
}

; Function Attrs: nounwind uwtable
define i32 @CRYPTO_ccm128_encrypt_ccm64(ptr noundef %0, ptr noundef %1, ptr noundef %2, i64 noundef %3, ptr noundef %4) #0 {
  %6 = alloca i32, align 4
  %7 = alloca ptr, align 8
  %8 = alloca ptr, align 8
  %9 = alloca ptr, align 8
  %10 = alloca i64, align 8
  %11 = alloca ptr, align 8
  %12 = alloca i64, align 8
  %13 = alloca i32, align 4
  %14 = alloca i32, align 4
  %15 = alloca i8, align 1
  %16 = alloca ptr, align 8
  %17 = alloca ptr, align 8
  %18 = alloca %union.anon.2, align 8
  %19 = alloca i32, align 4
  store ptr %0, ptr %7, align 8, !tbaa !3
  store ptr %1, ptr %8, align 8, !tbaa !17
  store ptr %2, ptr %9, align 8, !tbaa !17
  store i64 %3, ptr %10, align 8, !tbaa !19
  store ptr %4, ptr %11, align 8, !tbaa !10
  call void @llvm.lifetime.start.p0(i64 8, ptr %12) #4
  call void @llvm.lifetime.start.p0(i64 4, ptr %13) #4
  call void @llvm.lifetime.start.p0(i64 4, ptr %14) #4
  call void @llvm.lifetime.start.p0(i64 1, ptr %15) #4
  %20 = load ptr, ptr %7, align 8, !tbaa !3
  %21 = getelementptr inbounds nuw %struct.ccm128_context, ptr %20, i32 0, i32 0
  %22 = getelementptr inbounds [16 x i8], ptr %21, i64 0, i64 0
  %23 = load i8, ptr %22, align 8, !tbaa !11
  store i8 %23, ptr %15, align 1, !tbaa !11
  call void @llvm.lifetime.start.p0(i64 8, ptr %16) #4
  %24 = load ptr, ptr %7, align 8, !tbaa !3
  %25 = getelementptr inbounds nuw %struct.ccm128_context, ptr %24, i32 0, i32 3
  %26 = load ptr, ptr %25, align 8, !tbaa !15
  store ptr %26, ptr %16, align 8, !tbaa !10
  call void @llvm.lifetime.start.p0(i64 8, ptr %17) #4
  %27 = load ptr, ptr %7, align 8, !tbaa !3
  %28 = getelementptr inbounds nuw %struct.ccm128_context, ptr %27, i32 0, i32 4
  %29 = load ptr, ptr %28, align 8, !tbaa !16
  store ptr %29, ptr %17, align 8, !tbaa !10
  call void @llvm.lifetime.start.p0(i64 16, ptr %18) #4
  %30 = load i8, ptr %15, align 1, !tbaa !11
  %31 = zext i8 %30 to i32
  %32 = and i32 %31, 64
  %33 = icmp ne i32 %32, 0
  br i1 %33, label %47, label %34

34:                                               ; preds = %5
  %35 = load ptr, ptr %16, align 8, !tbaa !10
  %36 = load ptr, ptr %7, align 8, !tbaa !3
  %37 = getelementptr inbounds nuw %struct.ccm128_context, ptr %36, i32 0, i32 0
  %38 = getelementptr inbounds [16 x i8], ptr %37, i64 0, i64 0
  %39 = load ptr, ptr %7, align 8, !tbaa !3
  %40 = getelementptr inbounds nuw %struct.ccm128_context, ptr %39, i32 0, i32 1
  %41 = getelementptr inbounds [16 x i8], ptr %40, i64 0, i64 0
  %42 = load ptr, ptr %17, align 8, !tbaa !10
  call void %35(ptr noundef %38, ptr noundef %41, ptr noundef %42)
  %43 = load ptr, ptr %7, align 8, !tbaa !3
  %44 = getelementptr inbounds nuw %struct.ccm128_context, ptr %43, i32 0, i32 2
  %45 = load i64, ptr %44, align 8, !tbaa !12
  %46 = add i64 %45, 1
  store i64 %46, ptr %44, align 8, !tbaa !12
  br label %47

47:                                               ; preds = %34, %5
  %48 = load i8, ptr %15, align 1, !tbaa !11
  %49 = zext i8 %48 to i32
  %50 = and i32 %49, 7
  store i32 %50, ptr %14, align 4, !tbaa !8
  %51 = trunc i32 %50 to i8
  %52 = load ptr, ptr %7, align 8, !tbaa !3
  %53 = getelementptr inbounds nuw %struct.ccm128_context, ptr %52, i32 0, i32 0
  %54 = getelementptr inbounds [16 x i8], ptr %53, i64 0, i64 0
  store i8 %51, ptr %54, align 8, !tbaa !11
  store i64 0, ptr %12, align 8, !tbaa !19
  %55 = load i32, ptr %14, align 4, !tbaa !8
  %56 = sub i32 15, %55
  store i32 %56, ptr %13, align 4, !tbaa !8
  br label %57

57:                                               ; preds = %77, %47
  %58 = load i32, ptr %13, align 4, !tbaa !8
  %59 = icmp ult i32 %58, 15
  br i1 %59, label %60, label %80

60:                                               ; preds = %57
  %61 = load ptr, ptr %7, align 8, !tbaa !3
  %62 = getelementptr inbounds nuw %struct.ccm128_context, ptr %61, i32 0, i32 0
  %63 = load i32, ptr %13, align 4, !tbaa !8
  %64 = zext i32 %63 to i64
  %65 = getelementptr inbounds nuw [16 x i8], ptr %62, i64 0, i64 %64
  %66 = load i8, ptr %65, align 1, !tbaa !11
  %67 = zext i8 %66 to i64
  %68 = load i64, ptr %12, align 8, !tbaa !19
  %69 = or i64 %68, %67
  store i64 %69, ptr %12, align 8, !tbaa !19
  %70 = load ptr, ptr %7, align 8, !tbaa !3
  %71 = getelementptr inbounds nuw %struct.ccm128_context, ptr %70, i32 0, i32 0
  %72 = load i32, ptr %13, align 4, !tbaa !8
  %73 = zext i32 %72 to i64
  %74 = getelementptr inbounds nuw [16 x i8], ptr %71, i64 0, i64 %73
  store i8 0, ptr %74, align 1, !tbaa !11
  %75 = load i64, ptr %12, align 8, !tbaa !19
  %76 = shl i64 %75, 8
  store i64 %76, ptr %12, align 8, !tbaa !19
  br label %77

77:                                               ; preds = %60
  %78 = load i32, ptr %13, align 4, !tbaa !8
  %79 = add i32 %78, 1
  store i32 %79, ptr %13, align 4, !tbaa !8
  br label %57, !llvm.loop !35

80:                                               ; preds = %57
  %81 = load ptr, ptr %7, align 8, !tbaa !3
  %82 = getelementptr inbounds nuw %struct.ccm128_context, ptr %81, i32 0, i32 0
  %83 = getelementptr inbounds [16 x i8], ptr %82, i64 0, i64 15
  %84 = load i8, ptr %83, align 1, !tbaa !11
  %85 = zext i8 %84 to i64
  %86 = load i64, ptr %12, align 8, !tbaa !19
  %87 = or i64 %86, %85
  store i64 %87, ptr %12, align 8, !tbaa !19
  %88 = load ptr, ptr %7, align 8, !tbaa !3
  %89 = getelementptr inbounds nuw %struct.ccm128_context, ptr %88, i32 0, i32 0
  %90 = getelementptr inbounds [16 x i8], ptr %89, i64 0, i64 15
  store i8 1, ptr %90, align 1, !tbaa !11
  %91 = load i64, ptr %12, align 8, !tbaa !19
  %92 = load i64, ptr %10, align 8, !tbaa !19
  %93 = icmp ne i64 %91, %92
  br i1 %93, label %94, label %95

94:                                               ; preds = %80
  store i32 -1, ptr %6, align 4
  store i32 1, ptr %19, align 4
  br label %255

95:                                               ; preds = %80
  %96 = load i64, ptr %10, align 8, !tbaa !19
  %97 = add i64 %96, 15
  %98 = lshr i64 %97, 3
  %99 = or i64 %98, 1
  %100 = load ptr, ptr %7, align 8, !tbaa !3
  %101 = getelementptr inbounds nuw %struct.ccm128_context, ptr %100, i32 0, i32 2
  %102 = load i64, ptr %101, align 8, !tbaa !12
  %103 = add i64 %102, %99
  store i64 %103, ptr %101, align 8, !tbaa !12
  %104 = load ptr, ptr %7, align 8, !tbaa !3
  %105 = getelementptr inbounds nuw %struct.ccm128_context, ptr %104, i32 0, i32 2
  %106 = load i64, ptr %105, align 8, !tbaa !12
  %107 = icmp ugt i64 %106, 2305843009213693952
  br i1 %107, label %108, label %109

108:                                              ; preds = %95
  store i32 -2, ptr %6, align 4
  store i32 1, ptr %19, align 4
  br label %255

109:                                              ; preds = %95
  %110 = load i64, ptr %10, align 8, !tbaa !19
  %111 = udiv i64 %110, 16
  store i64 %111, ptr %12, align 8, !tbaa !19
  %112 = icmp ne i64 %111, 0
  br i1 %112, label %113, label %145

113:                                              ; preds = %109
  %114 = load ptr, ptr %11, align 8, !tbaa !10
  %115 = load ptr, ptr %8, align 8, !tbaa !17
  %116 = load ptr, ptr %9, align 8, !tbaa !17
  %117 = load i64, ptr %12, align 8, !tbaa !19
  %118 = load ptr, ptr %17, align 8, !tbaa !10
  %119 = load ptr, ptr %7, align 8, !tbaa !3
  %120 = getelementptr inbounds nuw %struct.ccm128_context, ptr %119, i32 0, i32 0
  %121 = getelementptr inbounds [16 x i8], ptr %120, i64 0, i64 0
  %122 = load ptr, ptr %7, align 8, !tbaa !3
  %123 = getelementptr inbounds nuw %struct.ccm128_context, ptr %122, i32 0, i32 1
  %124 = getelementptr inbounds [16 x i8], ptr %123, i64 0, i64 0
  call void %114(ptr noundef %115, ptr noundef %116, i64 noundef %117, ptr noundef %118, ptr noundef %121, ptr noundef %124)
  %125 = load i64, ptr %12, align 8, !tbaa !19
  %126 = mul i64 %125, 16
  store i64 %126, ptr %12, align 8, !tbaa !19
  %127 = load i64, ptr %12, align 8, !tbaa !19
  %128 = load ptr, ptr %8, align 8, !tbaa !17
  %129 = getelementptr inbounds nuw i8, ptr %128, i64 %127
  store ptr %129, ptr %8, align 8, !tbaa !17
  %130 = load i64, ptr %12, align 8, !tbaa !19
  %131 = load ptr, ptr %9, align 8, !tbaa !17
  %132 = getelementptr inbounds nuw i8, ptr %131, i64 %130
  store ptr %132, ptr %9, align 8, !tbaa !17
  %133 = load i64, ptr %12, align 8, !tbaa !19
  %134 = load i64, ptr %10, align 8, !tbaa !19
  %135 = sub i64 %134, %133
  store i64 %135, ptr %10, align 8, !tbaa !19
  %136 = load i64, ptr %10, align 8, !tbaa !19
  %137 = icmp ne i64 %136, 0
  br i1 %137, label %138, label %144

138:                                              ; preds = %113
  %139 = load ptr, ptr %7, align 8, !tbaa !3
  %140 = getelementptr inbounds nuw %struct.ccm128_context, ptr %139, i32 0, i32 0
  %141 = getelementptr inbounds [16 x i8], ptr %140, i64 0, i64 0
  %142 = load i64, ptr %12, align 8, !tbaa !19
  %143 = udiv i64 %142, 16
  call void @ctr64_add(ptr noundef %141, i64 noundef %143)
  br label %144

144:                                              ; preds = %138, %113
  br label %145

145:                                              ; preds = %144, %109
  %146 = load i64, ptr %10, align 8, !tbaa !19
  %147 = icmp ne i64 %146, 0
  br i1 %147, label %148, label %215

148:                                              ; preds = %145
  store i32 0, ptr %13, align 4, !tbaa !8
  br label %149

149:                                              ; preds = %170, %148
  %150 = load i32, ptr %13, align 4, !tbaa !8
  %151 = zext i32 %150 to i64
  %152 = load i64, ptr %10, align 8, !tbaa !19
  %153 = icmp ult i64 %151, %152
  br i1 %153, label %154, label %173

154:                                              ; preds = %149
  %155 = load ptr, ptr %8, align 8, !tbaa !17
  %156 = load i32, ptr %13, align 4, !tbaa !8
  %157 = zext i32 %156 to i64
  %158 = getelementptr inbounds nuw i8, ptr %155, i64 %157
  %159 = load i8, ptr %158, align 1, !tbaa !11
  %160 = zext i8 %159 to i32
  %161 = load ptr, ptr %7, align 8, !tbaa !3
  %162 = getelementptr inbounds nuw %struct.ccm128_context, ptr %161, i32 0, i32 1
  %163 = load i32, ptr %13, align 4, !tbaa !8
  %164 = zext i32 %163 to i64
  %165 = getelementptr inbounds nuw [16 x i8], ptr %162, i64 0, i64 %164
  %166 = load i8, ptr %165, align 1, !tbaa !11
  %167 = zext i8 %166 to i32
  %168 = xor i32 %167, %160
  %169 = trunc i32 %168 to i8
  store i8 %169, ptr %165, align 1, !tbaa !11
  br label %170

170:                                              ; preds = %154
  %171 = load i32, ptr %13, align 4, !tbaa !8
  %172 = add i32 %171, 1
  store i32 %172, ptr %13, align 4, !tbaa !8
  br label %149, !llvm.loop !36

173:                                              ; preds = %149
  %174 = load ptr, ptr %16, align 8, !tbaa !10
  %175 = load ptr, ptr %7, align 8, !tbaa !3
  %176 = getelementptr inbounds nuw %struct.ccm128_context, ptr %175, i32 0, i32 1
  %177 = getelementptr inbounds [16 x i8], ptr %176, i64 0, i64 0
  %178 = load ptr, ptr %7, align 8, !tbaa !3
  %179 = getelementptr inbounds nuw %struct.ccm128_context, ptr %178, i32 0, i32 1
  %180 = getelementptr inbounds [16 x i8], ptr %179, i64 0, i64 0
  %181 = load ptr, ptr %17, align 8, !tbaa !10
  call void %174(ptr noundef %177, ptr noundef %180, ptr noundef %181)
  %182 = load ptr, ptr %16, align 8, !tbaa !10
  %183 = load ptr, ptr %7, align 8, !tbaa !3
  %184 = getelementptr inbounds nuw %struct.ccm128_context, ptr %183, i32 0, i32 0
  %185 = getelementptr inbounds [16 x i8], ptr %184, i64 0, i64 0
  %186 = getelementptr inbounds [16 x i8], ptr %18, i64 0, i64 0
  %187 = load ptr, ptr %17, align 8, !tbaa !10
  call void %182(ptr noundef %185, ptr noundef %186, ptr noundef %187)
  store i32 0, ptr %13, align 4, !tbaa !8
  br label %188

188:                                              ; preds = %211, %173
  %189 = load i32, ptr %13, align 4, !tbaa !8
  %190 = zext i32 %189 to i64
  %191 = load i64, ptr %10, align 8, !tbaa !19
  %192 = icmp ult i64 %190, %191
  br i1 %192, label %193, label %214

193:                                              ; preds = %188
  %194 = load i32, ptr %13, align 4, !tbaa !8
  %195 = zext i32 %194 to i64
  %196 = getelementptr inbounds nuw [16 x i8], ptr %18, i64 0, i64 %195
  %197 = load i8, ptr %196, align 1, !tbaa !11
  %198 = zext i8 %197 to i32
  %199 = load ptr, ptr %8, align 8, !tbaa !17
  %200 = load i32, ptr %13, align 4, !tbaa !8
  %201 = zext i32 %200 to i64
  %202 = getelementptr inbounds nuw i8, ptr %199, i64 %201
  %203 = load i8, ptr %202, align 1, !tbaa !11
  %204 = zext i8 %203 to i32
  %205 = xor i32 %198, %204
  %206 = trunc i32 %205 to i8
  %207 = load ptr, ptr %9, align 8, !tbaa !17
  %208 = load i32, ptr %13, align 4, !tbaa !8
  %209 = zext i32 %208 to i64
  %210 = getelementptr inbounds nuw i8, ptr %207, i64 %209
  store i8 %206, ptr %210, align 1, !tbaa !11
  br label %211

211:                                              ; preds = %193
  %212 = load i32, ptr %13, align 4, !tbaa !8
  %213 = add i32 %212, 1
  store i32 %213, ptr %13, align 4, !tbaa !8
  br label %188, !llvm.loop !37

214:                                              ; preds = %188
  br label %215

215:                                              ; preds = %214, %145
  %216 = load i32, ptr %14, align 4, !tbaa !8
  %217 = sub i32 15, %216
  store i32 %217, ptr %13, align 4, !tbaa !8
  br label %218

218:                                              ; preds = %227, %215
  %219 = load i32, ptr %13, align 4, !tbaa !8
  %220 = icmp ult i32 %219, 16
  br i1 %220, label %221, label %230

221:                                              ; preds = %218
  %222 = load ptr, ptr %7, align 8, !tbaa !3
  %223 = getelementptr inbounds nuw %struct.ccm128_context, ptr %222, i32 0, i32 0
  %224 = load i32, ptr %13, align 4, !tbaa !8
  %225 = zext i32 %224 to i64
  %226 = getelementptr inbounds nuw [16 x i8], ptr %223, i64 0, i64 %225
  store i8 0, ptr %226, align 1, !tbaa !11
  br label %227

227:                                              ; preds = %221
  %228 = load i32, ptr %13, align 4, !tbaa !8
  %229 = add i32 %228, 1
  store i32 %229, ptr %13, align 4, !tbaa !8
  br label %218, !llvm.loop !38

230:                                              ; preds = %218
  %231 = load ptr, ptr %16, align 8, !tbaa !10
  %232 = load ptr, ptr %7, align 8, !tbaa !3
  %233 = getelementptr inbounds nuw %struct.ccm128_context, ptr %232, i32 0, i32 0
  %234 = getelementptr inbounds [16 x i8], ptr %233, i64 0, i64 0
  %235 = getelementptr inbounds [16 x i8], ptr %18, i64 0, i64 0
  %236 = load ptr, ptr %17, align 8, !tbaa !10
  call void %231(ptr noundef %234, ptr noundef %235, ptr noundef %236)
  %237 = getelementptr inbounds [2 x i64], ptr %18, i64 0, i64 0
  %238 = load i64, ptr %237, align 8, !tbaa !11
  %239 = load ptr, ptr %7, align 8, !tbaa !3
  %240 = getelementptr inbounds nuw %struct.ccm128_context, ptr %239, i32 0, i32 1
  %241 = getelementptr inbounds [2 x i64], ptr %240, i64 0, i64 0
  %242 = load i64, ptr %241, align 8, !tbaa !11
  %243 = xor i64 %242, %238
  store i64 %243, ptr %241, align 8, !tbaa !11
  %244 = getelementptr inbounds [2 x i64], ptr %18, i64 0, i64 1
  %245 = load i64, ptr %244, align 8, !tbaa !11
  %246 = load ptr, ptr %7, align 8, !tbaa !3
  %247 = getelementptr inbounds nuw %struct.ccm128_context, ptr %246, i32 0, i32 1
  %248 = getelementptr inbounds [2 x i64], ptr %247, i64 0, i64 1
  %249 = load i64, ptr %248, align 8, !tbaa !11
  %250 = xor i64 %249, %245
  store i64 %250, ptr %248, align 8, !tbaa !11
  %251 = load i8, ptr %15, align 1, !tbaa !11
  %252 = load ptr, ptr %7, align 8, !tbaa !3
  %253 = getelementptr inbounds nuw %struct.ccm128_context, ptr %252, i32 0, i32 0
  %254 = getelementptr inbounds [16 x i8], ptr %253, i64 0, i64 0
  store i8 %251, ptr %254, align 8, !tbaa !11
  store i32 0, ptr %6, align 4
  store i32 1, ptr %19, align 4
  br label %255

255:                                              ; preds = %230, %108, %94
  call void @llvm.lifetime.end.p0(i64 16, ptr %18) #4
  call void @llvm.lifetime.end.p0(i64 8, ptr %17) #4
  call void @llvm.lifetime.end.p0(i64 8, ptr %16) #4
  call void @llvm.lifetime.end.p0(i64 1, ptr %15) #4
  call void @llvm.lifetime.end.p0(i64 4, ptr %14) #4
  call void @llvm.lifetime.end.p0(i64 4, ptr %13) #4
  call void @llvm.lifetime.end.p0(i64 8, ptr %12) #4
  %256 = load i32, ptr %6, align 4
  ret i32 %256
}