; Function Attrs: nounwind uwtable
define range(i32 -2, 1) i32 @CRYPTO_ccm128_encrypt_ccm64(ptr noundef %0, ptr noundef %1, ptr noundef %2, i64 noundef %3, ptr noundef readonly captures(none) %4) local_unnamed_addr #5 {
  %6 = alloca %union.anon.2, align 8
  %7 = load i8, ptr %0, align 8, !tbaa !3
  %8 = getelementptr inbounds nuw i8, ptr %0, i64 40
  %9 = load ptr, ptr %8, align 8, !tbaa !10
  %10 = getelementptr inbounds nuw i8, ptr %0, i64 48
  %11 = load ptr, ptr %10, align 8, !tbaa !11
  call void @llvm.lifetime.start.p0(i64 16, ptr nonnull %6) #7
  %12 = zext i8 %7 to i32
  %13 = and i32 %12, 64
  %.not = icmp eq i32 %13, 0
  br i1 %.not, label %14, label %19

14:                                               ; preds = %5
  %15 = getelementptr inbounds nuw i8, ptr %0, i64 16
  tail call void %9(ptr noundef nonnull %0, ptr noundef nonnull %15, ptr noundef %11) #7
  %16 = getelementptr inbounds nuw i8, ptr %0, i64 32
  %17 = load i64, ptr %16, align 8, !tbaa !6
  %18 = add i64 %17, 1
  store i64 %18, ptr %16, align 8, !tbaa !6
  br label %19

19:                                               ; preds = %14, %5
  %20 = and i32 %12, 7
  %21 = trunc nuw nsw i32 %20 to i8
  store i8 %21, ptr %0, align 8, !tbaa !3
  %22 = xor i32 %20, 15
  %.not107 = icmp eq i32 %20, 0
  br i1 %.not107, label %._crit_edge, label %.lr.ph.preheader

.lr.ph.preheader:                                 ; preds = %19
  %23 = zext nneg i32 %22 to i64
  %umax = tail call i32 @llvm.umax.i32(i32 %22, i32 14)
  %24 = add nuw nsw i32 %umax, 1
  %wide.trip.count = zext nneg i32 %24 to i64
  br label %.lr.ph

.lr.ph:                                           ; preds = %.lr.ph.preheader, %.lr.ph
  %indvars.iv = phi i64 [ %23, %.lr.ph.preheader ], [ %indvars.iv.next, %.lr.ph ]
  %.085100 = phi i64 [ 0, %.lr.ph.preheader ], [ %29, %.lr.ph ]
  %25 = getelementptr inbounds nuw [16 x i8], ptr %0, i64 0, i64 %indvars.iv
  %26 = load i8, ptr %25, align 1, !tbaa !3
  %27 = zext i8 %26 to i64
  %28 = or disjoint i64 %.085100, %27
  store i8 0, ptr %25, align 1, !tbaa !3
  %29 = shl i64 %28, 8
  %indvars.iv.next = add nuw nsw i64 %indvars.iv, 1
  %exitcond.not = icmp eq i64 %indvars.iv.next, %wide.trip.count
  br i1 %exitcond.not, label %._crit_edge, label %.lr.ph, !llvm.loop !24

._crit_edge:                                      ; preds = %.lr.ph, %19
  %.085.lcssa = phi i64 [ 0, %19 ], [ %29, %.lr.ph ]
  %30 = getelementptr inbounds nuw i8, ptr %0, i64 15
  %31 = load i8, ptr %30, align 1, !tbaa !3
  %32 = zext i8 %31 to i64
  %33 = or disjoint i64 %.085.lcssa, %32
  store i8 1, ptr %30, align 1, !tbaa !3
  %.not92 = icmp eq i64 %33, %3
  br i1 %.not92, label %34, label %94

34:                                               ; preds = %._crit_edge
  %35 = add i64 %3, 15
  %36 = lshr i64 %35, 3
  %37 = or i64 %36, 1
  %38 = getelementptr inbounds nuw i8, ptr %0, i64 32
  %39 = load i64, ptr %38, align 8, !tbaa !6
  %40 = add i64 %39, %37
  store i64 %40, ptr %38, align 8, !tbaa !6
  %41 = icmp ugt i64 %40, 2305843009213693952
  br i1 %41, label %94, label %42

42:                                               ; preds = %34
  %43 = lshr i64 %3, 4
  %.not93 = icmp ult i64 %3, 16
  br i1 %.not93, label %ctr64_add.exit, label %44

44:                                               ; preds = %42
  %45 = getelementptr inbounds nuw i8, ptr %0, i64 16
  tail call void %4(ptr noundef %1, ptr noundef %2, i64 noundef %43, ptr noundef %11, ptr noundef nonnull %0, ptr noundef nonnull %45) #7
  %46 = and i64 %3, -16
  %47 = getelementptr inbounds nuw i8, ptr %1, i64 %46
  %48 = getelementptr inbounds nuw i8, ptr %2, i64 %46
  %49 = and i64 %3, 15
  %.not94 = icmp eq i64 %49, 0
  br i1 %.not94, label %._crit_edge106, label %50

50:                                               ; preds = %44
  %51 = getelementptr inbounds nuw i8, ptr %0, i64 8
  br label %52

52:                                               ; preds = %61, %50
  %.014.i = phi i64 [ %43, %50 ], [ %62, %61 ]
  %.013.i = phi i64 [ 8, %50 ], [ %53, %61 ]
  %.0.i = phi i64 [ 0, %50 ], [ %63, %61 ]
  %53 = add nsw i64 %.013.i, -1
  %54 = getelementptr inbounds nuw i8, ptr %51, i64 %53
  %55 = load i8, ptr %54, align 1, !tbaa !3
  %56 = zext i8 %55 to i64
  %57 = and i64 %.014.i, 255
  %58 = add nuw nsw i64 %.0.i, %57
  %59 = add nuw nsw i64 %58, %56
  %60 = trunc i64 %59 to i8
  store i8 %60, ptr %54, align 1, !tbaa !3
  %.not.i = icmp eq i64 %53, 0
  br i1 %.not.i, label %ctr64_add.exit, label %61

61:                                               ; preds = %52
  %62 = lshr i64 %.014.i, 8
  %63 = lshr i64 %59, 8
  %64 = icmp samesign ugt i64 %.014.i, 255
  %65 = icmp samesign ugt i64 %59, 255
  %66 = select i1 %64, i1 true, i1 %65
  br i1 %66, label %52, label %ctr64_add.exit, !llvm.loop !25

ctr64_add.exit:                                   ; preds = %61, %52, %42
  %.083 = phi i64 [ %3, %42 ], [ %49, %52 ], [ %49, %61 ]
  %.082 = phi ptr [ %2, %42 ], [ %48, %52 ], [ %48, %61 ]
  %.081 = phi ptr [ %1, %42 ], [ %47, %52 ], [ %47, %61 ]
  %.not95 = icmp eq i64 %.083, 0
  br i1 %.not95, label %._crit_edge106, label %.preheader

.preheader:                                       ; preds = %ctr64_add.exit
  %67 = getelementptr inbounds nuw i8, ptr %0, i64 16
  br label %68

68:                                               ; preds = %.preheader, %68
  %indvars.iv109 = phi i64 [ 0, %.preheader ], [ %indvars.iv.next110, %68 ]
  %69 = getelementptr inbounds nuw i8, ptr %.081, i64 %indvars.iv109
  %70 = load i8, ptr %69, align 1, !tbaa !3
  %71 = getelementptr inbounds nuw [16 x i8], ptr %67, i64 0, i64 %indvars.iv109
  %72 = load i8, ptr %71, align 1, !tbaa !3
  %73 = xor i8 %72, %70
  store i8 %73, ptr %71, align 1, !tbaa !3
  %indvars.iv.next110 = add nuw nsw i64 %indvars.iv109, 1
  %exitcond112.not = icmp eq i64 %indvars.iv.next110, %.083
  br i1 %exitcond112.not, label %74, label %68, !llvm.loop !26

74:                                               ; preds = %68
  tail call void %9(ptr noundef nonnull %67, ptr noundef nonnull %67, ptr noundef %11) #7
  call void %9(ptr noundef nonnull %0, ptr noundef nonnull %6, ptr noundef %11) #7
  br label %75

75:                                               ; preds = %74, %75
  %indvars.iv113 = phi i64 [ 0, %74 ], [ %indvars.iv.next114, %75 ]
  %76 = getelementptr inbounds nuw [16 x i8], ptr %6, i64 0, i64 %indvars.iv113
  %77 = load i8, ptr %76, align 1, !tbaa !3
  %78 = getelementptr inbounds nuw i8, ptr %.081, i64 %indvars.iv113
  %79 = load i8, ptr %78, align 1, !tbaa !3
  %80 = xor i8 %79, %77
  %81 = getelementptr inbounds nuw i8, ptr %.082, i64 %indvars.iv113
  store i8 %80, ptr %81, align 1, !tbaa !3
  %indvars.iv.next114 = add nuw nsw i64 %indvars.iv113, 1
  %exitcond116.not = icmp eq i64 %indvars.iv.next114, %.083
  br i1 %exitcond116.not, label %._crit_edge106, label %75, !llvm.loop !27

._crit_edge106:                                   ; preds = %75, %44, %ctr64_add.exit
  %82 = zext nneg i32 %22 to i64
  %scevgep = getelementptr i8, ptr %0, i64 %82
  %83 = sub nuw nsw i32 16, %22
  %84 = zext nneg i32 %83 to i64
  call void @llvm.memset.p0.i64(ptr noundef nonnull align 1 dereferenceable(1) %scevgep, i8 0, i64 %84, i1 false), !tbaa !3
  call void %9(ptr noundef nonnull %0, ptr noundef nonnull %6, ptr noundef %11) #7
  %85 = load i64, ptr %6, align 8, !tbaa !3
  %86 = getelementptr inbounds nuw i8, ptr %0, i64 16
  %87 = load i64, ptr %86, align 8, !tbaa !3
  %88 = xor i64 %87, %85
  store i64 %88, ptr %86, align 8, !tbaa !3
  %89 = getelementptr inbounds nuw i8, ptr %6, i64 8
  %90 = load i64, ptr %89, align 8, !tbaa !3
  %91 = getelementptr inbounds nuw i8, ptr %0, i64 24
  %92 = load i64, ptr %91, align 8, !tbaa !3
  %93 = xor i64 %92, %90
  store i64 %93, ptr %91, align 8, !tbaa !3
  store i8 %7, ptr %0, align 8, !tbaa !3
  br label %94

94:                                               ; preds = %34, %._crit_edge, %._crit_edge106
  %.0 = phi i32 [ 0, %._crit_edge106 ], [ -1, %._crit_edge ], [ -2, %34 ]
  call void @llvm.lifetime.end.p0(i64 16, ptr nonnull %6) #7
  ret i32 %.0
}